; Function Attrs: nounwind uwtable
define dso_local ptr @index_open(i32 noundef %0, i32 noundef %1) local_unnamed_addr #0 {
  %3 = tail call ptr @relation_open(i32 noundef %0, i32 noundef %1) #7
  %4 = getelementptr inbounds nuw i8, ptr %3, i64 56
  %5 = load ptr, ptr %4, align 8
  %6 = getelementptr inbounds nuw i8, ptr %5, i64 115
  %7 = load i8, ptr %6, align 1
  switch i8 %7, label %8 [
    i8 105, label %validate_relation_kind.exit
    i8 73, label %validate_relation_kind.exit
  ]

8:                                                ; preds = %2
  %9 = tail call zeroext i1 @errstart_cold(i32 noundef 21, ptr noundef null) #8
  tail call void @llvm.assume(i1 %9)
  %10 = tail call i32 @errcode(i32 noundef 151027844) #7
  %11 = load ptr, ptr %4, align 8
  %12 = getelementptr inbounds nuw i8, ptr %11, i64 4
  %13 = tail call i32 (ptr, ...) @errmsg(ptr noundef nonnull @.str.15, ptr noundef nonnull %12) #7
  tail call void @errfinish(ptr noundef nonnull @.str.1, i32 noundef 204, ptr noundef nonnull @__func__.validate_relation_kind) #7
  unreachable

validate_relation_kind.exit:                      ; preds = %2, %2
  ret ptr %3
}